target datalayout = "e-m:e-p270:32:32-p271:32:32-p272:64:64-i64:64-i128:128-f80:128-n8:16:32:64-S128"
target triple = "x86_64-pc-linux-gnu"

%struct.FT_CMapRec_ = type { %struct.FT_CharMapRec_, ptr }
%struct.FT_CharMapRec_ = type { ptr, i32, i16, i16 }
%struct.FT_FaceRec_ = type { i64, i64, i64, i64, i64, ptr, ptr, i32, ptr, i32, ptr, %struct.FT_Generic_, %struct.FT_BBox_, i16, i16, i16, i16, i16, i16, i16, i16, ptr, ptr, ptr, ptr, ptr, ptr, %struct.FT_ListRec_, %struct.FT_Generic_, ptr, ptr }
%struct.FT_BBox_ = type { i64, i64, i64, i64 }
%struct.FT_ListRec_ = type { ptr, ptr }
%struct.FT_Generic_ = type { ptr, ptr }
%struct.PS_UnicodesRec_ = type { %struct.FT_CMapRec_, i32, ptr }

; Function Attrs: nounwind uwtable
define internal void @cff_cmap_unicode_done(ptr noundef %0) #0 {
  %2 = alloca ptr, align 8
  %3 = alloca ptr, align 8
  %4 = alloca ptr, align 8
  %5 = alloca ptr, align 8
  store ptr %0, ptr %2, align 8
  %6 = load ptr, ptr %2, align 8
  store ptr %6, ptr %3, align 8
  %7 = load ptr, ptr %2, align 8
  %8 = getelementptr inbounds %struct.FT_CMapRec_, ptr %7, i32 0, i32 0
  %9 = getelementptr inbounds %struct.FT_CharMapRec_, ptr %8, i32 0, i32 0
  %10 = load ptr, ptr %9, align 8
  store ptr %10, ptr %4, align 8
  %11 = load ptr, ptr %4, align 8
  %12 = getelementptr inbounds %struct.FT_FaceRec_, ptr %11, i32 0, i32 25
  %13 = load ptr, ptr %12, align 8
  store ptr %13, ptr %5, align 8
  br label %14

14:                                               ; preds = %1
  %15 = load ptr, ptr %5, align 8
  %16 = load ptr, ptr %3, align 8
  %17 = getelementptr inbounds %struct.PS_UnicodesRec_, ptr %16, i32 0, i32 2
  %18 = load ptr, ptr %17, align 8
  call void @ft_mem_free(ptr noundef %15, ptr noundef %18)
  %19 = load ptr, ptr %3, align 8
  %20 = getelementptr inbounds %struct.PS_UnicodesRec_, ptr %19, i32 0, i32 2
  store ptr null, ptr %20, align 8
  br label %21

21:                                               ; preds = %14
  %22 = load ptr, ptr %3, align 8
  %23 = getelementptr inbounds %struct.PS_UnicodesRec_, ptr %22, i32 0, i32 1
  store i32 0, ptr %23, align 8
  ret void
}